; Function Attrs: mustprogress uwtable
define void @_ZN7rocksdb22PessimisticTransaction5ClearEv(ptr noundef nonnull align 8 dereferenceable(561) %this) unnamed_addr #3 align 2 {
entry:
  %txn_db_impl_ = getelementptr inbounds i8, ptr %this, i64 328
  %0 = load ptr, ptr %txn_db_impl_, align 8
  %tracked_locks_ = getelementptr inbounds i8, ptr %this, i64 184
  %1 = load ptr, ptr %tracked_locks_, align 8
  tail call void @_ZN7rocksdb24PessimisticTransactionDB6UnLockEPNS_22PessimisticTransactionERKNS_11LockTrackerE(ptr noundef nonnull align 8 dereferenceable(480) %0, ptr noundef nonnull %this, ptr noundef nonnull align 8 dereferenceable(8) %1)
  tail call void @_ZN7rocksdb19TransactionBaseImpl5ClearEv(ptr noundef nonnull align 8 dereferenceable(320) %this)
  ret void
}